target datalayout = "e-m:e-p270:32:32-p271:32:32-p272:64:64-i64:64-i128:128-f80:128-n8:16:32:64-S128"
target triple = "x86_64-pc-linux-gnu"

%struct.graphviz_polygon_style_t = type { i32 }
%struct.pointf_s = type { double, double }
%struct.Agobj_s = type { %struct.Agtag_s, ptr }
%struct.Agtag_s = type { i32, i64 }
%struct.Agnodeinfo_t = type { %struct.Agrec_s, ptr, ptr, %struct.pointf_s, double, double, %struct.boxf, double, double, double, double, double, ptr, ptr, ptr, i8, i8, i8, i8, i32, i32, i32, ptr, double, i8, i8, ptr, ptr, i8, i64, i8, i8, i8, ptr, ptr, %struct.elist, %struct.elist, %struct.elist, %struct.elist, %struct.elist, ptr, i32, ptr, i32, i32, double, %struct.elist, %struct.elist, %struct.elist, %struct.elist, ptr, i32, i32, i32, [1 x double] }
%struct.Agrec_s = type { ptr, ptr }
%struct.boxf = type { %struct.pointf_s, %struct.pointf_s }
%struct.elist = type { ptr, i64 }
%struct.polygon_t = type { i32, i64, i64, double, double, double, %struct.graphviz_polygon_style_t, ptr }
%struct.Agraphinfo_t = type { %struct.Agrec_s, ptr, ptr, %struct.boxf, [4 x %struct.pointf_s], i8, i8, i8, i8, i32, double, double, i16, ptr, ptr, ptr, ptr, i32, ptr, ptr, ptr, ptr, i16, i16, i32, ptr, ptr, ptr, ptr, ptr, i32, ptr, ptr, %struct.nlist_t, ptr, ptr, i32, i32, i8, i8, i32, i32, i32, ptr, ptr, ptr, ptr, i8, i8, i8, i8, i8 }
%struct.nlist_t = type { ptr, i64 }
%struct.anon.3 = type { ptr, ptr, ptr, double, ptr, i64, i64, double, double, double, double }

@N_penwidth = external global ptr, align 8

; Function Attrs: nounwind uwtable
define internal zeroext i1 @point_inside(ptr noundef %0, double %1, double %2) #0 {
  %4 = alloca i1, align 1
  %5 = alloca %struct.pointf_s, align 8
  %6 = alloca ptr, align 8
  %7 = alloca %struct.pointf_s, align 8
  %8 = alloca ptr, align 8
  %9 = alloca i32, align 4
  %10 = alloca %struct.pointf_s, align 8
  %11 = alloca i64, align 8
  %12 = alloca ptr, align 8
  %13 = alloca i64, align 8
  %14 = alloca double, align 8
  %15 = getelementptr inbounds nuw { double, double }, ptr %5, i32 0, i32 0
  store double %1, ptr %15, align 8
  %16 = getelementptr inbounds nuw { double, double }, ptr %5, i32 0, i32 1
  store double %2, ptr %16, align 8
  store ptr %0, ptr %6, align 8, !tbaa !157
  call void @llvm.lifetime.start.p0(i64 16, ptr %7) #13
  call void @llvm.lifetime.start.p0(i64 8, ptr %8) #13
  %17 = load ptr, ptr %6, align 8, !tbaa !157
  %18 = icmp ne ptr %17, null
  br i1 %18, label %20, label %19

19:                                               ; preds = %3
  store i1 false, ptr %4, align 1
  store i32 1, ptr %9, align 4
  br label %123

20:                                               ; preds = %3
  %21 = load ptr, ptr %6, align 8, !tbaa !157
  %22 = getelementptr inbounds nuw %struct.anon.3, ptr %21, i32 0, i32 0
  %23 = load ptr, ptr %22, align 8, !tbaa !98
  store ptr %23, ptr %8, align 8, !tbaa !35
  call void @llvm.lifetime.start.p0(i64 16, ptr %10) #13
  %24 = load ptr, ptr %8, align 8, !tbaa !35
  %25 = call ptr @agraphof(ptr noundef %24)
  %26 = getelementptr inbounds nuw %struct.Agobj_s, ptr %25, i32 0, i32 1
  %27 = load ptr, ptr %26, align 8, !tbaa !37
  %28 = getelementptr inbounds nuw %struct.Agraphinfo_t, ptr %27, i32 0, i32 9
  %29 = load i32, ptr %28, align 4, !tbaa !118
  %30 = and i32 %29, 3
  %31 = mul nsw i32 90, %30
  %32 = getelementptr inbounds nuw { double, double }, ptr %5, i32 0, i32 0
  %33 = load double, ptr %32, align 8
  %34 = getelementptr inbounds nuw { double, double }, ptr %5, i32 0, i32 1
  %35 = load double, ptr %34, align 8
  %36 = call { double, double } @ccwrotatepf(double %33, double %35, i32 noundef %31)
  %37 = getelementptr inbounds nuw { double, double }, ptr %10, i32 0, i32 0
  %38 = extractvalue { double, double } %36, 0
  store double %38, ptr %37, align 8
  %39 = getelementptr inbounds nuw { double, double }, ptr %10, i32 0, i32 1
  %40 = extractvalue { double, double } %36, 1
  store double %40, ptr %39, align 8
  call void @llvm.memcpy.p0.p0.i64(ptr align 8 %7, ptr align 8 %10, i64 16, i1 false), !tbaa.struct !16
  call void @llvm.lifetime.end.p0(i64 16, ptr %10) #13
  %41 = load ptr, ptr %8, align 8, !tbaa !35
  %42 = load ptr, ptr %6, align 8, !tbaa !157
  %43 = getelementptr inbounds nuw %struct.anon.3, ptr %42, i32 0, i32 2
  %44 = load ptr, ptr %43, align 8, !tbaa !98
  %45 = icmp ne ptr %41, %44
  br i1 %45, label %46, label %96

46:                                               ; preds = %20
  call void @llvm.lifetime.start.p0(i64 8, ptr %11) #13
  call void @llvm.lifetime.start.p0(i64 8, ptr %12) #13
  %47 = load ptr, ptr %8, align 8, !tbaa !35
  %48 = getelementptr inbounds nuw %struct.Agobj_s, ptr %47, i32 0, i32 1
  %49 = load ptr, ptr %48, align 8, !tbaa !37
  %50 = getelementptr inbounds nuw %struct.Agnodeinfo_t, ptr %49, i32 0, i32 2
  %51 = load ptr, ptr %50, align 8, !tbaa !117
  store ptr %51, ptr %12, align 8, !tbaa !60
  call void @llvm.lifetime.start.p0(i64 8, ptr %13) #13
  store i64 2, ptr %13, align 8, !tbaa !10
  call void @llvm.lifetime.start.p0(i64 8, ptr %14) #13
  %52 = load ptr, ptr %8, align 8, !tbaa !35
  %53 = load ptr, ptr @N_penwidth, align 8, !tbaa !72
  %54 = call double @late_double(ptr noundef %52, ptr noundef %53, double noundef 1.000000e+00, double noundef 0.000000e+00)
  store double %54, ptr %14, align 8, !tbaa !17
  %55 = load ptr, ptr %12, align 8, !tbaa !60
  %56 = getelementptr inbounds nuw %struct.polygon_t, ptr %55, i32 0, i32 1
  %57 = load i64, ptr %56, align 8, !tbaa !65
  %58 = icmp uge i64 %57, 1
  br i1 %58, label %59, label %69

59:                                               ; preds = %46
  %60 = load double, ptr %14, align 8, !tbaa !17
  %61 = fcmp ogt double %60, 0.000000e+00
  br i1 %61, label %62, label %69

62:                                               ; preds = %59
  %63 = load ptr, ptr %12, align 8, !tbaa !60
  %64 = getelementptr inbounds nuw %struct.polygon_t, ptr %63, i32 0, i32 1
  %65 = load i64, ptr %64, align 8, !tbaa !65
  %66 = add i64 %65, 1
  %67 = sub i64 %66, 1
  %68 = mul i64 2, %67
  store i64 %68, ptr %11, align 8, !tbaa !10
  br label %82

69:                                               ; preds = %59, %46
  %70 = load ptr, ptr %12, align 8, !tbaa !60
  %71 = getelementptr inbounds nuw %struct.polygon_t, ptr %70, i32 0, i32 1
  %72 = load i64, ptr %71, align 8, !tbaa !65
  %73 = icmp ult i64 %72, 1
  br i1 %73, label %74, label %75

74:                                               ; preds = %69
  store i64 0, ptr %11, align 8, !tbaa !10
  br label %81

75:                                               ; preds = %69
  %76 = load ptr, ptr %12, align 8, !tbaa !60
  %77 = getelementptr inbounds nuw %struct.polygon_t, ptr %76, i32 0, i32 1
  %78 = load i64, ptr %77, align 8, !tbaa !65
  %79 = sub i64 %78, 1
  %80 = mul i64 2, %79
  store i64 %80, ptr %11, align 8, !tbaa !10
  br label %81

81:                                               ; preds = %75, %74
  br label %82

82:                                               ; preds = %81, %62
  %83 = load ptr, ptr %12, align 8, !tbaa !60
  %84 = getelementptr inbounds nuw %struct.polygon_t, ptr %83, i32 0, i32 7
  %85 = load ptr, ptr %84, align 8, !tbaa !100
  %86 = load i64, ptr %11, align 8, !tbaa !10
  %87 = add i64 %86, 1
  %88 = getelementptr inbounds nuw %struct.pointf_s, ptr %85, i64 %87
  %89 = getelementptr inbounds nuw %struct.pointf_s, ptr %88, i32 0, i32 0
  %90 = load double, ptr %89, align 8, !tbaa !21
  %91 = load ptr, ptr %6, align 8, !tbaa !157
  %92 = getelementptr inbounds nuw %struct.anon.3, ptr %91, i32 0, i32 3
  store double %90, ptr %92, align 8, !tbaa !98
  %93 = load ptr, ptr %8, align 8, !tbaa !35
  %94 = load ptr, ptr %6, align 8, !tbaa !157
  %95 = getelementptr inbounds nuw %struct.anon.3, ptr %94, i32 0, i32 2
  store ptr %93, ptr %95, align 8, !tbaa !98
  call void @llvm.lifetime.end.p0(i64 8, ptr %14) #13
  call void @llvm.lifetime.end.p0(i64 8, ptr %13) #13
  call void @llvm.lifetime.end.p0(i64 8, ptr %12) #13
  call void @llvm.lifetime.end.p0(i64 8, ptr %11) #13
  br label %96

96:                                               ; preds = %82, %20
  %97 = getelementptr inbounds nuw %struct.pointf_s, ptr %7, i32 0, i32 0
  %98 = load double, ptr %97, align 8, !tbaa !21
  %99 = call double @llvm.fabs.f64(double %98)
  %100 = load ptr, ptr %6, align 8, !tbaa !157
  %101 = getelementptr inbounds nuw %struct.anon.3, ptr %100, i32 0, i32 3
  %102 = load double, ptr %101, align 8, !tbaa !98
  %103 = fcmp ogt double %99, %102
  br i1 %103, label %112, label %104

104:                                              ; preds = %96
  %105 = getelementptr inbounds nuw %struct.pointf_s, ptr %7, i32 0, i32 1
  %106 = load double, ptr %105, align 8, !tbaa !23
  %107 = call double @llvm.fabs.f64(double %106)
  %108 = load ptr, ptr %6, align 8, !tbaa !157
  %109 = getelementptr inbounds nuw %struct.anon.3, ptr %108, i32 0, i32 3
  %110 = load double, ptr %109, align 8, !tbaa !98
  %111 = fcmp ogt double %107, %110
  br i1 %111, label %112, label %113

112:                                              ; preds = %104, %96
  store i1 false, ptr %4, align 1
  store i32 1, ptr %9, align 4
  br label %123

113:                                              ; preds = %104
  %114 = getelementptr inbounds nuw %struct.pointf_s, ptr %7, i32 0, i32 0
  %115 = load double, ptr %114, align 8, !tbaa !21
  %116 = getelementptr inbounds nuw %struct.pointf_s, ptr %7, i32 0, i32 1
  %117 = load double, ptr %116, align 8, !tbaa !23
  %118 = call double @hypot(double noundef %115, double noundef %117) #13, !tbaa !12
  %119 = load ptr, ptr %6, align 8, !tbaa !157
  %120 = getelementptr inbounds nuw %struct.anon.3, ptr %119, i32 0, i32 3
  %121 = load double, ptr %120, align 8, !tbaa !98
  %122 = fcmp ole double %118, %121
  store i1 %122, ptr %4, align 1
  store i32 1, ptr %9, align 4
  br label %123

123:                                              ; preds = %113, %112, %19
  call void @llvm.lifetime.end.p0(i64 8, ptr %8) #13
  call void @llvm.lifetime.end.p0(i64 16, ptr %7) #13
  %124 = load i1, ptr %4, align 1
  ret i1 %124
}