; Function Attrs: nounwind uwtable
define internal zeroext i1 @point_inside(ptr noundef captures(address_is_null) %0, double %1, double %2) #0 {
  %.not = icmp eq ptr %0, null
  br i1 %.not, label %54, label %4

4:                                                ; preds = %3
  %5 = load ptr, ptr %0, align 8, !tbaa !81
  %6 = tail call ptr @agraphof(ptr noundef %5) #26
  %7 = getelementptr inbounds nuw i8, ptr %6, i64 16
  %8 = load ptr, ptr %7, align 8, !tbaa !21
  %9 = getelementptr inbounds nuw i8, ptr %8, i64 132
  %10 = load i32, ptr %9, align 4, !tbaa !101
  %11 = and i32 %10, 3
  %12 = mul nuw nsw i32 %11, 90
  %13 = tail call { double, double } @ccwrotatepf(double %1, double %2, i32 noundef %12) #26
  %14 = extractvalue { double, double } %13, 0
  %15 = extractvalue { double, double } %13, 1
  %16 = getelementptr inbounds nuw i8, ptr %0, i64 16
  %17 = load ptr, ptr %16, align 8, !tbaa !81
  %.not30 = icmp eq ptr %5, %17
  br i1 %.not30, label %._crit_edge, label %18

._crit_edge:                                      ; preds = %4
  %.phi.trans.insert = getelementptr inbounds nuw i8, ptr %0, i64 24
  %.pre = load double, ptr %.phi.trans.insert, align 8, !tbaa !81
  br label %43

18:                                               ; preds = %4
  %19 = getelementptr inbounds nuw i8, ptr %5, i64 16
  %20 = load ptr, ptr %19, align 8, !tbaa !21
  %21 = getelementptr inbounds nuw i8, ptr %20, i64 24
  %22 = load ptr, ptr %21, align 8, !tbaa !100
  %23 = load ptr, ptr @N_penwidth, align 8, !tbaa !56
  %24 = tail call double @late_double(ptr noundef %5, ptr noundef %23, double noundef 1.000000e+00, double noundef 0.000000e+00) #26
  %25 = getelementptr inbounds nuw i8, ptr %22, i64 8
  %26 = load i64, ptr %25, align 8, !tbaa !51
  %27 = icmp ne i64 %26, 0
  %28 = fcmp ogt double %24, 0.000000e+00
  %or.cond = select i1 %27, i1 %28, i1 false
  br i1 %or.cond, label %29, label %31

29:                                               ; preds = %18
  %30 = shl i64 %26, 1
  br label %36

31:                                               ; preds = %18
  %32 = icmp eq i64 %26, 0
  br i1 %32, label %36, label %33

33:                                               ; preds = %31
  %34 = shl i64 %26, 1
  %35 = add i64 %34, -2
  br label %36

36:                                               ; preds = %31, %33, %29
  %.025 = phi i64 [ %30, %29 ], [ %35, %33 ], [ 0, %31 ]
  %37 = getelementptr inbounds nuw i8, ptr %22, i64 56
  %38 = load ptr, ptr %37, align 8, !tbaa !83
  %39 = getelementptr %struct.pointf_s, ptr %38, i64 %.025
  %40 = getelementptr i8, ptr %39, i64 16
  %41 = load double, ptr %40, align 8, !tbaa !16
  %42 = getelementptr inbounds nuw i8, ptr %0, i64 24
  store double %41, ptr %42, align 8, !tbaa !81
  store ptr %5, ptr %16, align 8, !tbaa !81
  br label %43

43:                                               ; preds = %._crit_edge, %36
  %44 = phi double [ %.pre, %._crit_edge ], [ %41, %36 ]
  %45 = tail call double @llvm.fabs.f64(double %14)
  %46 = fcmp ogt double %45, %44
  %47 = tail call double @llvm.fabs.f64(double %15)
  %48 = fcmp ogt double %47, %44
  %or.cond32 = select i1 %46, i1 true, i1 %48
  br i1 %or.cond32, label %54, label %49

49:                                               ; preds = %43
  %50 = getelementptr inbounds nuw i8, ptr %0, i64 24
  %51 = tail call double @hypot(double noundef %14, double noundef %15) #26, !tbaa !17
  %52 = load double, ptr %50, align 8, !tbaa !81
  %53 = fcmp ole double %51, %52
  br label %54

54:                                               ; preds = %43, %3, %49
  %.0 = phi i1 [ %53, %49 ], [ false, %3 ], [ false, %43 ]
  ret i1 %.0
}